target datalayout = "e-m:e-p270:32:32-p271:32:32-p272:64:64-i64:64-i128:128-f80:128-n8:16:32:64-S128"
target triple = "x86_64-pc-linux-gnu"

%"class.gmx::LocalAtomSet" = type { ptr }
%"class.gmx::ArrayRef" = type { %"struct.gmx::ArrayRefIter", %"struct.gmx::ArrayRefIter" }
%"struct.gmx::ArrayRefIter" = type { ptr }
%"class.gmx::internal::LocalAtomSetData" = type { %"class.std::vector", %"class.std::vector", %"class.std::vector" }
%"class.std::vector" = type { %"struct.std::_Vector_base" }
%"struct.std::_Vector_base" = type { %"struct.std::_Vector_base<int, std::allocator<int>>::_Vector_impl" }
%"struct.std::_Vector_base<int, std::allocator<int>>::_Vector_impl" = type { %"struct.std::_Vector_base<int, std::allocator<int>>::_Vector_impl_data" }
%"struct.std::_Vector_base<int, std::allocator<int>>::_Vector_impl_data" = type { ptr, ptr, ptr }

$_ZN3gmx8ArrayRefIKiEC2IRKSt6vectorIiSaIiEEvEEOT_ = comdat any

$_ZNKSt6vectorIiSaIiEE4dataEv = comdat any

$_ZN3gmx12ArrayRefIterIKiEC2EPS1_ = comdat any

$_ZNKSt6vectorIiSaIiEE4sizeEv = comdat any

$_ZNKSt6vectorIiSaIiEE11_M_data_ptrIiEEPT_S4_ = comdat any

@_ZN3gmx12LocalAtomSetC1ERKNS_8internal16LocalAtomSetDataE = unnamed_addr alias void (ptr, ptr), ptr @_ZN3gmx12LocalAtomSetC2ERKNS_8internal16LocalAtomSetDataE

; Function Attrs: mustprogress nounwind uwtable
define void @_ZN3gmx12LocalAtomSetC2ERKNS_8internal16LocalAtomSetDataE(ptr noundef nonnull align 8 dereferenceable(8) %0, ptr noundef nonnull align 8 dereferenceable(72) %1) unnamed_addr #0 align 2 {
  %3 = alloca ptr, align 8
  %4 = alloca ptr, align 8
  store ptr %0, ptr %3, align 8, !tbaa !4
  store ptr %1, ptr %4, align 8, !tbaa !9
  %5 = load ptr, ptr %3, align 8
  %6 = getelementptr inbounds nuw %"class.gmx::LocalAtomSet", ptr %5, i32 0, i32 0
  %7 = load ptr, ptr %4, align 8, !tbaa !9
  store ptr %7, ptr %6, align 8, !tbaa !11
  ret void
}

; Function Attrs: mustprogress uwtable
define { ptr, ptr } @_ZNK3gmx12LocalAtomSet11globalIndexEv(ptr noundef nonnull align 8 dereferenceable(8) %0) #1 align 2 {
  %2 = alloca %"class.gmx::ArrayRef", align 8
  %3 = alloca ptr, align 8
  store ptr %0, ptr %3, align 8, !tbaa !4
  %4 = load ptr, ptr %3, align 8
  %5 = getelementptr inbounds nuw %"class.gmx::LocalAtomSet", ptr %4, i32 0, i32 0
  %6 = load ptr, ptr %5, align 8, !tbaa !11
  %7 = getelementptr inbounds nuw %"class.gmx::internal::LocalAtomSetData", ptr %6, i32 0, i32 0
  call void @_ZN3gmx8ArrayRefIKiEC2IRKSt6vectorIiSaIiEEvEEOT_(ptr noundef nonnull align 8 dereferenceable(16) %2, ptr noundef nonnull align 8 dereferenceable(24) %7)
  %8 = load { ptr, ptr }, ptr %2, align 8
  ret { ptr, ptr } %8
}

; Function Attrs: mustprogress nounwind uwtable
define linkonce_odr void @_ZN3gmx8ArrayRefIKiEC2IRKSt6vectorIiSaIiEEvEEOT_(ptr noundef nonnull align 8 dereferenceable(16) %0, ptr noundef nonnull align 8 dereferenceable(24) %1) unnamed_addr #0 comdat align 2 {
  %3 = alloca ptr, align 8
  %4 = alloca ptr, align 8
  store ptr %0, ptr %3, align 8, !tbaa !13
  store ptr %1, ptr %4, align 8, !tbaa !15
  %5 = load ptr, ptr %3, align 8
  %6 = getelementptr inbounds nuw %"class.gmx::ArrayRef", ptr %5, i32 0, i32 0
  %7 = load ptr, ptr %4, align 8, !tbaa !15
  %8 = call noundef ptr @_ZNKSt6vectorIiSaIiEE4dataEv(ptr noundef nonnull align 8 dereferenceable(24) %7) #2
  call void @_ZN3gmx12ArrayRefIterIKiEC2EPS1_(ptr noundef nonnull align 8 dereferenceable(8) %6, ptr noundef %8) #2
  %9 = getelementptr inbounds nuw %"class.gmx::ArrayRef", ptr %5, i32 0, i32 1
  %10 = load ptr, ptr %4, align 8, !tbaa !15
  %11 = call noundef ptr @_ZNKSt6vectorIiSaIiEE4dataEv(ptr noundef nonnull align 8 dereferenceable(24) %10) #2
  %12 = load ptr, ptr %4, align 8, !tbaa !15
  %13 = call noundef i64 @_ZNKSt6vectorIiSaIiEE4sizeEv(ptr noundef nonnull align 8 dereferenceable(24) %12) #2
  %14 = getelementptr inbounds nuw i32, ptr %11, i64 %13
  call void @_ZN3gmx12ArrayRefIterIKiEC2EPS1_(ptr noundef nonnull align 8 dereferenceable(8) %9, ptr noundef %14) #2
  ret void
}

; Function Attrs: mustprogress nounwind uwtable
define linkonce_odr noundef ptr @_ZNKSt6vectorIiSaIiEE4dataEv(ptr noundef nonnull align 8 dereferenceable(24) %0) #0 comdat align 2 {
  %2 = alloca ptr, align 8
  store ptr %0, ptr %2, align 8, !tbaa !15
  %3 = load ptr, ptr %2, align 8
  %4 = getelementptr inbounds nuw %"struct.std::_Vector_base", ptr %3, i32 0, i32 0
  %5 = getelementptr inbounds nuw %"struct.std::_Vector_base<int, std::allocator<int>>::_Vector_impl_data", ptr %4, i32 0, i32 0
  %6 = load ptr, ptr %5, align 8, !tbaa !17
  %7 = call noundef ptr @_ZNKSt6vectorIiSaIiEE11_M_data_ptrIiEEPT_S4_(ptr noundef nonnull align 8 dereferenceable(24) %3, ptr noundef %6) #2
  ret ptr %7
}

; Function Attrs: mustprogress nounwind uwtable
define linkonce_odr void @_ZN3gmx12ArrayRefIterIKiEC2EPS1_(ptr noundef nonnull align 8 dereferenceable(8) %0, ptr noundef %1) unnamed_addr #0 comdat align 2 {
  %3 = alloca ptr, align 8
  %4 = alloca ptr, align 8
  store ptr %0, ptr %3, align 8, !tbaa !20
  store ptr %1, ptr %4, align 8, !tbaa !22
  %5 = load ptr, ptr %3, align 8
  %6 = getelementptr inbounds nuw %"struct.gmx::ArrayRefIter", ptr %5, i32 0, i32 0
  %7 = load ptr, ptr %4, align 8, !tbaa !22
  store ptr %7, ptr %6, align 8, !tbaa !23
  ret void
}

; Function Attrs: mustprogress nounwind uwtable
define linkonce_odr noundef i64 @_ZNKSt6vectorIiSaIiEE4sizeEv(ptr noundef nonnull align 8 dereferenceable(24) %0) #0 comdat align 2 {
  %2 = alloca ptr, align 8
  store ptr %0, ptr %2, align 8, !tbaa !15
  %3 = load ptr, ptr %2, align 8
  %4 = getelementptr inbounds nuw %"struct.std::_Vector_base", ptr %3, i32 0, i32 0
  %5 = getelementptr inbounds nuw %"struct.std::_Vector_base<int, std::allocator<int>>::_Vector_impl_data", ptr %4, i32 0, i32 1
  %6 = load ptr, ptr %5, align 8, !tbaa !25
  %7 = getelementptr inbounds nuw %"struct.std::_Vector_base", ptr %3, i32 0, i32 0
  %8 = getelementptr inbounds nuw %"struct.std::_Vector_base<int, std::allocator<int>>::_Vector_impl_data", ptr %7, i32 0, i32 0
  %9 = load ptr, ptr %8, align 8, !tbaa !17
  %10 = ptrtoint ptr %6 to i64
  %11 = ptrtoint ptr %9 to i64
  %12 = sub i64 %10, %11
  %13 = sdiv exact i64 %12, 4
  ret i64 %13
}

; Function Attrs: mustprogress nounwind uwtable
define linkonce_odr noundef ptr @_ZNKSt6vectorIiSaIiEE11_M_data_ptrIiEEPT_S4_(ptr noundef nonnull align 8 dereferenceable(24) %0, ptr noundef %1) #0 comdat align 2 {
  %3 = alloca ptr, align 8
  %4 = alloca ptr, align 8
  store ptr %0, ptr %3, align 8, !tbaa !15
  store ptr %1, ptr %4, align 8, !tbaa !22
  %5 = load ptr, ptr %4, align 8, !tbaa !22
  ret ptr %5
}

; Function Attrs: mustprogress uwtable
define { ptr, ptr } @_ZNK3gmx12LocalAtomSet10localIndexEv(ptr noundef nonnull align 8 dereferenceable(8) %0) #1 align 2 {
  %2 = alloca %"class.gmx::ArrayRef", align 8
  %3 = alloca ptr, align 8
  store ptr %0, ptr %3, align 8, !tbaa !4
  %4 = load ptr, ptr %3, align 8
  %5 = getelementptr inbounds nuw %"class.gmx::LocalAtomSet", ptr %4, i32 0, i32 0
  %6 = load ptr, ptr %5, align 8, !tbaa !11
  %7 = getelementptr inbounds nuw %"class.gmx::internal::LocalAtomSetData", ptr %6, i32 0, i32 2
  call void @_ZN3gmx8ArrayRefIKiEC2IRKSt6vectorIiSaIiEEvEEOT_(ptr noundef nonnull align 8 dereferenceable(16) %2, ptr noundef nonnull align 8 dereferenceable(24) %7)
  %8 = load { ptr, ptr }, ptr %2, align 8
  ret { ptr, ptr } %8
}

; Function Attrs: mustprogress uwtable
define { ptr, ptr } @_ZNK3gmx12LocalAtomSet15collectiveIndexEv(ptr noundef nonnull align 8 dereferenceable(8) %0) #1 align 2 {
  %2 = alloca %"class.gmx::ArrayRef", align 8
  %3 = alloca ptr, align 8
  store ptr %0, ptr %3, align 8, !tbaa !4
  %4 = load ptr, ptr %3, align 8
  %5 = getelementptr inbounds nuw %"class.gmx::LocalAtomSet", ptr %4, i32 0, i32 0
  %6 = load ptr, ptr %5, align 8, !tbaa !11
  %7 = getelementptr inbounds nuw %"class.gmx::internal::LocalAtomSetData", ptr %6, i32 0, i32 1
  call void @_ZN3gmx8ArrayRefIKiEC2IRKSt6vectorIiSaIiEEvEEOT_(ptr noundef nonnull align 8 dereferenceable(16) %2, ptr noundef nonnull align 8 dereferenceable(24) %7)
  %8 = load { ptr, ptr }, ptr %2, align 8
  ret { ptr, ptr } %8
}

; Function Attrs: mustprogress nounwind uwtable
define noundef i64 @_ZNK3gmx12LocalAtomSet14numAtomsGlobalEv(ptr noundef nonnull align 8 dereferenceable(8) %0) #0 align 2 {
  %2 = alloca ptr, align 8
  store ptr %0, ptr %2, align 8, !tbaa !4
  %3 = load ptr, ptr %2, align 8
  %4 = getelementptr inbounds nuw %"class.gmx::LocalAtomSet", ptr %3, i32 0, i32 0
  %5 = load ptr, ptr %4, align 8, !tbaa !11
  %6 = getelementptr inbounds nuw %"class.gmx::internal::LocalAtomSetData", ptr %5, i32 0, i32 0
  %7 = call noundef i64 @_ZNKSt6vectorIiSaIiEE4sizeEv(ptr noundef nonnull align 8 dereferenceable(24) %6) #2
  ret i64 %7
}

; Function Attrs: mustprogress nounwind uwtable
define noundef i64 @_ZNK3gmx12LocalAtomSet13numAtomsLocalEv(ptr noundef nonnull align 8 dereferenceable(8) %0) #0 align 2 {
  %2 = alloca ptr, align 8
  store ptr %0, ptr %2, align 8, !tbaa !4
  %3 = load ptr, ptr %2, align 8
  %4 = getelementptr inbounds nuw %"class.gmx::LocalAtomSet", ptr %3, i32 0, i32 0
  %5 = load ptr, ptr %4, align 8, !tbaa !11
  %6 = getelementptr inbounds nuw %"class.gmx::internal::LocalAtomSetData", ptr %5, i32 0, i32 2
  %7 = call noundef i64 @_ZNKSt6vectorIiSaIiEE4sizeEv(ptr noundef nonnull align 8 dereferenceable(24) %6) #2
  ret i64 %7
}


!llvm.module.flags = !{!0, !1, !2, !3}

!0 = !{i32 1, !"wchar_size", i32 4}
!1 = !{i32 7, !"openmp", i32 51}
!2 = !{i32 8, !"PIC Level", i32 2}
!3 = !{i32 7, !"uwtable", i32 2}
!4 = !{!5, !5, i64 0}
!5 = !{!"p1 _ZTSN3gmx12LocalAtomSetE", !6, i64 0}
!6 = !{!"any pointer", !7, i64 0}
!7 = !{!"omnipotent char", !8, i64 0}
!8 = !{!"Simple C++ TBAA"}
!9 = !{!10, !10, i64 0}
!10 = !{!"p1 _ZTSN3gmx8internal16LocalAtomSetDataE", !6, i64 0}
!11 = !{!12, !10, i64 0}
!12 = !{!"_ZTSN3gmx12LocalAtomSetE", !10, i64 0}
!13 = !{!14, !14, i64 0}
!14 = !{!"p1 _ZTSN3gmx8ArrayRefIKiEE", !6, i64 0}
!15 = !{!16, !16, i64 0}
!16 = !{!"p1 _ZTSSt6vectorIiSaIiEE", !6, i64 0}
!17 = !{!18, !19, i64 0}
!18 = !{!"_ZTSNSt12_Vector_baseIiSaIiEE17_Vector_impl_dataE", !19, i64 0, !19, i64 8, !19, i64 16}
!19 = !{!"p1 int", !6, i64 0}
!20 = !{!21, !21, i64 0}
!21 = !{!"p1 _ZTSN3gmx12ArrayRefIterIKiEE", !6, i64 0}
!22 = !{!19, !19, i64 0}
!23 = !{!24, !19, i64 0}
!24 = !{!"_ZTSN3gmx12ArrayRefIterIKiEE", !19, i64 0}
!25 = !{!18, !19, i64 8}
